; ModuleID = 'source-C-CXX/32/2664.c'
source_filename = "source-C-CXX/32/2664.c"
target datalayout = "e-m:e-p270:32:32-p271:32:32-p272:64:64-i64:64-f80:128-n8:16:32:64-S128"
target triple = "x86_64-pc-linux-gnu"

@.str = private unnamed_addr constant [3 x i8] c"%d\00", align 1
@.str.1 = private unnamed_addr constant [2 x i8] c"\0A\00", align 1
@.str.2 = private unnamed_addr constant [3 x i8] c"%c\00", align 1

; Function Attrs: nofree nounwind sspstrong uwtable
define dso_local i32 @main() local_unnamed_addr #0 {
  %1 = alloca i32, align 4
  %2 = alloca [260 x i8], align 16
  %3 = bitcast i32* %1 to i8*
  call void @llvm.lifetime.start.p0i8(i64 4, i8* nonnull %3) #4
  %4 = getelementptr inbounds [260 x i8], [260 x i8]* %2, i64 0, i64 0
  call void @llvm.lifetime.start.p0i8(i64 260, i8* nonnull %4) #4
  %5 = call i32 (i8*, ...) @__isoc99_scanf(i8* getelementptr inbounds ([3 x i8], [3 x i8]* @.str, i64 0, i64 0), i32* nonnull %1)
  %6 = call i32 (i8*, ...) @__isoc99_scanf(i8* getelementptr inbounds ([2 x i8], [2 x i8]* @.str.1, i64 0, i64 0))
  %7 = load i32, i32* %1, align 4, !tbaa !5
  %8 = icmp sgt i32 %7, 0
  br i1 %8, label %9, label %33

9:                                                ; preds = %0, %29
  %10 = phi i32 [ %30, %29 ], [ 0, %0 ]
  br label %11

11:                                               ; preds = %9, %22
  %12 = phi i64 [ 0, %9 ], [ %26, %22 ]
  %13 = getelementptr inbounds [260 x i8], [260 x i8]* %2, i64 0, i64 %12
  %14 = call i32 (i8*, ...) @__isoc99_scanf(i8* getelementptr inbounds ([3 x i8], [3 x i8]* @.str.2, i64 0, i64 0), i8* nonnull %13)
  %15 = load i8, i8* %13, align 1, !tbaa !9
  %16 = sext i8 %15 to i32
  switch i32 %16, label %22 [
    i32 65, label %20
    i32 84, label %17
    i32 71, label %18
    i32 67, label %19
  ]

17:                                               ; preds = %11
  br label %20

18:                                               ; preds = %11
  br label %20

19:                                               ; preds = %11
  br label %20

20:                                               ; preds = %11, %17, %18, %19
  %21 = phi i8 [ 71, %19 ], [ 67, %18 ], [ 65, %17 ], [ 84, %11 ]
  store i8 %21, i8* %13, align 1, !tbaa !9
  br label %22

22:                                               ; preds = %20, %11
  %23 = phi i8 [ %15, %11 ], [ %21, %20 ]
  %24 = sext i8 %23 to i32
  %25 = call i32 @putchar(i32 %24)
  %26 = add nuw i64 %12, 1
  %27 = load i8, i8* %13, align 1, !tbaa !9
  %28 = icmp eq i8 %27, 10
  br i1 %28, label %29, label %11, !llvm.loop !10

29:                                               ; preds = %22
  %30 = add nuw nsw i32 %10, 1
  %31 = load i32, i32* %1, align 4, !tbaa !5
  %32 = icmp slt i32 %30, %31
  br i1 %32, label %9, label %33, !llvm.loop !12

33:                                               ; preds = %29, %0
  call void @llvm.lifetime.end.p0i8(i64 260, i8* nonnull %4) #4
  call void @llvm.lifetime.end.p0i8(i64 4, i8* nonnull %3) #4
  ret i32 0
}

; Function Attrs: argmemonly mustprogress nofree nosync nounwind willreturn
declare void @llvm.lifetime.start.p0i8(i64 immarg, i8* nocapture) #1

; Function Attrs: nofree nounwind
declare noundef i32 @__isoc99_scanf(i8* nocapture noundef readonly, ...) local_unnamed_addr #2

; Function Attrs: argmemonly mustprogress nofree nosync nounwind willreturn
declare void @llvm.lifetime.end.p0i8(i64 immarg, i8* nocapture) #1

; Function Attrs: nofree nounwind
declare noundef i32 @putchar(i32 noundef) local_unnamed_addr #3


!llvm.module.flags = !{!0, !1, !2, !3}
!llvm.ident = !{!4}

!0 = !{i32 1, !"wchar_size", i32 4}
!1 = !{i32 7, !"PIC Level", i32 2}
!2 = !{i32 7, !"PIE Level", i32 2}
!3 = !{i32 7, !"uwtable", i32 1}
!4 = !{!"clang version 13.0.0"}
!5 = !{!6, !6, i64 0}
!6 = !{!"int", !7, i64 0}
!7 = !{!"omnipotent char", !8, i64 0}
!8 = !{!"Simple C/C++ TBAA"}
!9 = !{!7, !7, i64 0}
!10 = distinct !{!10, !11}
!11 = !{!"llvm.loop.mustprogress"}
!12 = distinct !{!12, !11}
